target datalayout = "e-m:e-p270:32:32-p271:32:32-p272:64:64-i64:64-i128:128-f80:128-n8:16:32:64-S128"
target triple = "x86_64-pc-linux-gnu"

%struct.SDL_Renderer = type { ptr, ptr, ptr, ptr, ptr, ptr, ptr, ptr, ptr, ptr, ptr, ptr, ptr, ptr, ptr, ptr, ptr, ptr, ptr, ptr, ptr, ptr, ptr, ptr, ptr, ptr, ptr, ptr, ptr, ptr, i32, i8, ptr, i8, i8, i8, i64, i64, ptr, %struct.SDL_RenderViewState, %struct.SDL_FPoint, i32, i32, ptr, ptr, ptr, i32, float, float, float, float, %struct.SDL_FColor, i32, i32, i32, ptr, ptr, ptr, ptr, i32, %struct.SDL_FColor, float, %struct.SDL_Rect, %struct.SDL_Rect, i8, i8, i8, i8, ptr, i64, i64, i8, ptr, ptr, i32, ptr, i8, ptr, ptr }
%struct.SDL_RenderViewState = type { i32, i32, %struct.SDL_Rect, %struct.SDL_Rect, %struct.SDL_Rect, %struct.SDL_Rect, i8, %struct.SDL_FPoint, i32, i32, i32, %struct.SDL_FRect, %struct.SDL_FRect, %struct.SDL_FPoint, %struct.SDL_FPoint, %struct.SDL_FPoint }
%struct.SDL_FRect = type { float, float, float, float }
%struct.SDL_FPoint = type { float, float }
%struct.SDL_FColor = type { float, float, float, float }
%struct.SDL_Rect = type { i32, i32, i32, i32 }

@.str.2 = private unnamed_addr constant [26 x i8] c"Parameter '%s' is invalid\00", align 1
@.str.5 = private unnamed_addr constant [9 x i8] c"renderer\00", align 1
@.str.29 = private unnamed_addr constant [56 x i8] c"Renderer's window has been destroyed, can't use further\00", align 1

; Function Attrs: nounwind uwtable
define hidden zeroext i1 @SDL_GetRenderColorScale_REAL(ptr noundef %0, ptr noundef %1) #0 {
  %3 = alloca i1, align 1
  %4 = alloca ptr, align 8
  %5 = alloca ptr, align 8
  store ptr %0, ptr %4, align 8
  store ptr %1, ptr %5, align 8
  %6 = load ptr, ptr %5, align 8
  %7 = icmp ne ptr %6, null
  br i1 %7, label %8, label %10

8:                                                ; preds = %2
  %9 = load ptr, ptr %5, align 8
  store float 1.000000e+00, ptr %9, align 4
  br label %10

10:                                               ; preds = %8, %2
  %11 = load ptr, ptr %4, align 8
  %12 = call zeroext i1 @SDL_ObjectValid(ptr noundef %11, i32 noundef 2)
  br i1 %12, label %15, label %13

13:                                               ; preds = %10
  %14 = call zeroext i1 (ptr, ...) @SDL_SetError_REAL(ptr noundef @.str.2, ptr noundef @.str.5)
  store i1 false, ptr %3, align 1
  br label %31

15:                                               ; preds = %10
  %16 = load ptr, ptr %4, align 8
  %17 = getelementptr inbounds nuw %struct.SDL_Renderer, ptr %16, i32 0, i32 76
  %18 = load i8, ptr %17, align 8, !range !5, !noundef !6
  %19 = trunc i8 %18 to i1
  br i1 %19, label %20, label %22

20:                                               ; preds = %15
  %21 = call zeroext i1 (ptr, ...) @SDL_SetError_REAL(ptr noundef @.str.29)
  store i1 false, ptr %3, align 1
  br label %31

22:                                               ; preds = %15
  %23 = load ptr, ptr %5, align 8
  %24 = icmp ne ptr %23, null
  br i1 %24, label %25, label %30

25:                                               ; preds = %22
  %26 = load ptr, ptr %4, align 8
  %27 = getelementptr inbounds nuw %struct.SDL_Renderer, ptr %26, i32 0, i32 49
  %28 = load float, ptr %27, align 4
  %29 = load ptr, ptr %5, align 8
  store float %28, ptr %29, align 4
  br label %30

30:                                               ; preds = %25, %22
  store i1 true, ptr %3, align 1
  br label %31

31:                                               ; preds = %30, %20, %13
  %32 = load i1, ptr %3, align 1
  ret i1 %32
}