; Function Attrs: nounwind uwtable
define hidden noundef zeroext i1 @SDL_GetRenderColorScale_REAL(ptr noundef %0, ptr noundef writeonly captures(address_is_null) %1) local_unnamed_addr #0 {
  %.not = icmp eq ptr %1, null
  br i1 %.not, label %4, label %3

3:                                                ; preds = %2
  store float 1.000000e+00, ptr %1, align 4
  br label %4

4:                                                ; preds = %3, %2
  %5 = tail call zeroext i1 @SDL_ObjectValid(ptr noundef %0, i32 noundef 2) #15
  br i1 %5, label %8, label %6

6:                                                ; preds = %4
  %7 = tail call zeroext i1 (ptr, ...) @SDL_SetError_REAL(ptr noundef nonnull @.str.2, ptr noundef nonnull @.str.5) #15
  br label %18

8:                                                ; preds = %4
  %9 = getelementptr inbounds nuw i8, ptr %0, i64 688
  %10 = load i8, ptr %9, align 8, !range !3, !noundef !4
  %11 = trunc nuw i8 %10 to i1
  br i1 %11, label %12, label %14

12:                                               ; preds = %8
  %13 = tail call zeroext i1 (ptr, ...) @SDL_SetError_REAL(ptr noundef nonnull @.str.29) #15
  br label %18

14:                                               ; preds = %8
  br i1 %.not, label %18, label %15

15:                                               ; preds = %14
  %16 = getelementptr inbounds nuw i8, ptr %0, i64 492
  %17 = load float, ptr %16, align 4
  store float %17, ptr %1, align 4
  br label %18

18:                                               ; preds = %14, %15, %12, %6
  %.0 = phi i1 [ false, %12 ], [ false, %6 ], [ true, %15 ], [ true, %14 ]
  ret i1 %.0
}